target datalayout = "e-m:e-p270:32:32-p271:32:32-p272:64:64-i64:64-i128:128-f80:128-n8:16:32:64-S128"
target triple = "x86_64-pc-linux-gnu"

; Function Attrs: mustprogress nounwind uwtable
define noundef i64 @_Z13WideToUtfSizePKw(ptr noundef %0) #1 {
  %2 = alloca ptr, align 8
  %3 = alloca i64, align 8
  store ptr %0, ptr %2, align 8
  store i64 0, ptr %3, align 8
  br label %4

4:                                                ; preds = %66, %1
  %5 = load ptr, ptr %2, align 8
  %6 = load i32, ptr %5, align 4
  %7 = icmp ne i32 %6, 0
  br i1 %7, label %8, label %69

8:                                                ; preds = %4
  %9 = load ptr, ptr %2, align 8
  %10 = load i32, ptr %9, align 4
  %11 = icmp slt i32 %10, 128
  br i1 %11, label %12, label %15

12:                                               ; preds = %8
  %13 = load i64, ptr %3, align 8
  %14 = add i64 %13, 1
  store i64 %14, ptr %3, align 8
  br label %65

15:                                               ; preds = %8
  %16 = load ptr, ptr %2, align 8
  %17 = load i32, ptr %16, align 4
  %18 = icmp slt i32 %17, 2048
  br i1 %18, label %19, label %22

19:                                               ; preds = %15
  %20 = load i64, ptr %3, align 8
  %21 = add i64 %20, 2
  store i64 %21, ptr %3, align 8
  br label %64

22:                                               ; preds = %15
  %23 = load ptr, ptr %2, align 8
  %24 = load i32, ptr %23, align 4
  %25 = icmp ult i32 %24, 65536
  br i1 %25, label %26, label %55

26:                                               ; preds = %22
  %27 = load ptr, ptr %2, align 8
  %28 = getelementptr inbounds i32, ptr %27, i64 0
  %29 = load i32, ptr %28, align 4
  %30 = icmp sge i32 %29, 55296
  br i1 %30, label %31, label %51

31:                                               ; preds = %26
  %32 = load ptr, ptr %2, align 8
  %33 = getelementptr inbounds i32, ptr %32, i64 0
  %34 = load i32, ptr %33, align 4
  %35 = icmp sle i32 %34, 56319
  br i1 %35, label %36, label %51

36:                                               ; preds = %31
  %37 = load ptr, ptr %2, align 8
  %38 = getelementptr inbounds i32, ptr %37, i64 1
  %39 = load i32, ptr %38, align 4
  %40 = icmp sge i32 %39, 56320
  br i1 %40, label %41, label %51

41:                                               ; preds = %36
  %42 = load ptr, ptr %2, align 8
  %43 = getelementptr inbounds i32, ptr %42, i64 1
  %44 = load i32, ptr %43, align 4
  %45 = icmp sle i32 %44, 57343
  br i1 %45, label %46, label %51

46:                                               ; preds = %41
  %47 = load i64, ptr %3, align 8
  %48 = add i64 %47, 4
  store i64 %48, ptr %3, align 8
  %49 = load ptr, ptr %2, align 8
  %50 = getelementptr inbounds i32, ptr %49, i32 1
  store ptr %50, ptr %2, align 8
  br label %54

51:                                               ; preds = %41, %36, %31, %26
  %52 = load i64, ptr %3, align 8
  %53 = add i64 %52, 3
  store i64 %53, ptr %3, align 8
  br label %54

54:                                               ; preds = %51, %46
  br label %63

55:                                               ; preds = %22
  %56 = load ptr, ptr %2, align 8
  %57 = load i32, ptr %56, align 4
  %58 = icmp ult i32 %57, 2097152
  br i1 %58, label %59, label %62

59:                                               ; preds = %55
  %60 = load i64, ptr %3, align 8
  %61 = add i64 %60, 4
  store i64 %61, ptr %3, align 8
  br label %62

62:                                               ; preds = %59, %55
  br label %63

63:                                               ; preds = %62, %54
  br label %64

64:                                               ; preds = %63, %19
  br label %65

65:                                               ; preds = %64, %12
  br label %66

66:                                               ; preds = %65
  %67 = load ptr, ptr %2, align 8
  %68 = getelementptr inbounds i32, ptr %67, i32 1
  store ptr %68, ptr %2, align 8
  br label %4, !llvm.loop !10

69:                                               ; preds = %4
  %70 = load i64, ptr %3, align 8
  %71 = add i64 %70, 1
  ret i64 %71
}