; Function Attrs: mustprogress nofree norecurse nosync nounwind willreturn memory(argmem: read) uwtable
define noundef i64 @_Z13WideToUtfSizePKw(ptr noundef readonly captures(none) %0) local_unnamed_addr #5 {
  %2 = load i32, ptr %0, align 4
  %.not21 = icmp eq i32 %2, 0
  br i1 %.not21, label %._crit_edge, label %.lr.ph

.lr.ph:                                           ; preds = %1, %26
  %3 = phi i32 [ %28, %26 ], [ %2, %1 ]
  %.023 = phi i64 [ %.1, %26 ], [ 0, %1 ]
  %.01622 = phi ptr [ %27, %26 ], [ %0, %1 ]
  %4 = icmp slt i32 %3, 128
  br i1 %4, label %5, label %7

5:                                                ; preds = %.lr.ph
  %6 = add i64 %.023, 1
  br label %26

7:                                                ; preds = %.lr.ph
  %8 = icmp samesign ult i32 %3, 2048
  br i1 %8, label %9, label %11

9:                                                ; preds = %7
  %10 = add i64 %.023, 2
  br label %26

11:                                               ; preds = %7
  %12 = icmp samesign ult i32 %3, 65536
  br i1 %12, label %13, label %23

13:                                               ; preds = %11
  %14 = and i32 %3, 64512
  %or.cond = icmp eq i32 %14, 55296
  br i1 %or.cond, label %15, label %21

15:                                               ; preds = %13
  %16 = getelementptr inbounds nuw i8, ptr %.01622, i64 4
  %17 = load i32, ptr %16, align 4
  %18 = and i32 %17, -1024
  %or.cond20 = icmp eq i32 %18, 56320
  br i1 %or.cond20, label %19, label %21

19:                                               ; preds = %15
  %20 = add i64 %.023, 4
  br label %26

21:                                               ; preds = %15, %13
  %22 = add i64 %.023, 3
  br label %26

23:                                               ; preds = %11
  %24 = icmp samesign ult i32 %3, 2097152
  %25 = add i64 %.023, 4
  %spec.select = select i1 %24, i64 %25, i64 %.023
  br label %26

26:                                               ; preds = %23, %5, %21, %19, %9
  %.117 = phi ptr [ %.01622, %5 ], [ %.01622, %9 ], [ %16, %19 ], [ %.01622, %21 ], [ %.01622, %23 ]
  %.1 = phi i64 [ %6, %5 ], [ %10, %9 ], [ %20, %19 ], [ %22, %21 ], [ %spec.select, %23 ]
  %27 = getelementptr inbounds nuw i8, ptr %.117, i64 4
  %28 = load i32, ptr %27, align 4
  %.not = icmp eq i32 %28, 0
  br i1 %.not, label %._crit_edge.loopexit, label %.lr.ph, !llvm.loop !10

._crit_edge.loopexit:                             ; preds = %26
  %29 = add i64 %.1, 1
  br label %._crit_edge

._crit_edge:                                      ; preds = %._crit_edge.loopexit, %1
  %.0.lcssa = phi i64 [ 1, %1 ], [ %29, %._crit_edge.loopexit ]
  ret i64 %.0.lcssa
}